target datalayout = "e-m:e-p270:32:32-p271:32:32-p272:64:64-i64:64-i128:128-f80:128-n8:16:32:64-S128"
target triple = "x86_64-pc-linux-gnu"

%union.pthread_mutex_t = type { %struct.__pthread_mutex_s }
%struct.__pthread_mutex_s = type { i32, i32, i32, i32, i32, i16, i16, %struct.__pthread_internal_list }
%struct.__pthread_internal_list = type { ptr, ptr }
%struct.pmix_tma = type { ptr, ptr, ptr, ptr, ptr, ptr, ptr, ptr }
%struct.pmix_mca_base_var_enum_t = type { %struct.pmix_object_t, i8, ptr, ptr, ptr, ptr, ptr, ptr, i32, ptr }
%struct.pmix_object_t = type { %union.pthread_mutex_t, ptr, i32, %struct.pmix_tma }
%struct.pmix_mca_base_var_enum_flag_t = type { %struct.pmix_mca_base_var_enum_t, ptr }
%struct.pmix_mca_base_var_enum_value_flag_t = type { i32, ptr, i32 }

; Function Attrs: nounwind uwtable
define internal i32 @enum_get_value_flag(ptr noundef %0, i32 noundef %1, ptr noundef %2, ptr noundef %3) #0 {
  %5 = alloca i32, align 4
  %6 = alloca ptr, align 8
  %7 = alloca i32, align 4
  %8 = alloca ptr, align 8
  %9 = alloca ptr, align 8
  %10 = alloca ptr, align 8
  %11 = alloca i32, align 4
  %12 = alloca i32, align 4
  %13 = alloca i32, align 4
  store ptr %0, ptr %6, align 8, !tbaa !3
  store i32 %1, ptr %7, align 4, !tbaa !24
  store ptr %2, ptr %8, align 8, !tbaa !45
  store ptr %3, ptr %9, align 8, !tbaa !47
  call void @llvm.lifetime.start.p0(i64 8, ptr %10) #13
  %14 = load ptr, ptr %6, align 8, !tbaa !3
  store ptr %14, ptr %10, align 8, !tbaa !30
  call void @llvm.lifetime.start.p0(i64 4, ptr %11) #13
  call void @llvm.lifetime.start.p0(i64 4, ptr %12) #13
  %15 = load ptr, ptr %6, align 8, !tbaa !3
  %16 = getelementptr inbounds nuw %struct.pmix_mca_base_var_enum_t, ptr %15, i32 0, i32 3
  %17 = load ptr, ptr %16, align 8, !tbaa !17
  %18 = load ptr, ptr %6, align 8, !tbaa !3
  %19 = call i32 %17(ptr noundef %18, ptr noundef %11)
  store i32 %19, ptr %12, align 4, !tbaa !24
  %20 = load i32, ptr %12, align 4, !tbaa !24
  %21 = icmp ne i32 0, %20
  br i1 %21, label %22, label %24

22:                                               ; preds = %4
  %23 = load i32, ptr %12, align 4, !tbaa !24
  store i32 %23, ptr %5, align 4
  store i32 1, ptr %13, align 4
  br label %57

24:                                               ; preds = %4
  %25 = load i32, ptr %7, align 4, !tbaa !24
  %26 = load i32, ptr %11, align 4, !tbaa !24
  %27 = icmp sge i32 %25, %26
  br i1 %27, label %28, label %29

28:                                               ; preds = %24
  store i32 -65, ptr %5, align 4
  store i32 1, ptr %13, align 4
  br label %57

29:                                               ; preds = %24
  %30 = load ptr, ptr %8, align 8, !tbaa !45
  %31 = icmp ne ptr %30, null
  br i1 %31, label %32, label %42

32:                                               ; preds = %29
  %33 = load ptr, ptr %10, align 8, !tbaa !30
  %34 = getelementptr inbounds nuw %struct.pmix_mca_base_var_enum_flag_t, ptr %33, i32 0, i32 1
  %35 = load ptr, ptr %34, align 8, !tbaa !32
  %36 = load i32, ptr %7, align 4, !tbaa !24
  %37 = sext i32 %36 to i64
  %38 = getelementptr inbounds %struct.pmix_mca_base_var_enum_value_flag_t, ptr %35, i64 %37
  %39 = getelementptr inbounds nuw %struct.pmix_mca_base_var_enum_value_flag_t, ptr %38, i32 0, i32 0
  %40 = load i32, ptr %39, align 8, !tbaa !87
  %41 = load ptr, ptr %8, align 8, !tbaa !45
  store i32 %40, ptr %41, align 4, !tbaa !24
  br label %42

42:                                               ; preds = %32, %29
  %43 = load ptr, ptr %9, align 8, !tbaa !47
  %44 = icmp ne ptr %43, null
  br i1 %44, label %45, label %56

45:                                               ; preds = %42
  %46 = load ptr, ptr %10, align 8, !tbaa !30
  %47 = getelementptr inbounds nuw %struct.pmix_mca_base_var_enum_flag_t, ptr %46, i32 0, i32 1
  %48 = load ptr, ptr %47, align 8, !tbaa !32
  %49 = load i32, ptr %7, align 4, !tbaa !24
  %50 = sext i32 %49 to i64
  %51 = getelementptr inbounds %struct.pmix_mca_base_var_enum_value_flag_t, ptr %48, i64 %50
  %52 = getelementptr inbounds nuw %struct.pmix_mca_base_var_enum_value_flag_t, ptr %51, i32 0, i32 1
  %53 = load ptr, ptr %52, align 8, !tbaa !42
  %54 = call noalias ptr @strdup(ptr noundef %53) #13
  %55 = load ptr, ptr %9, align 8, !tbaa !47
  store ptr %54, ptr %55, align 8, !tbaa !49
  br label %56

56:                                               ; preds = %45, %42
  store i32 0, ptr %5, align 4
  store i32 1, ptr %13, align 4
  br label %57

57:                                               ; preds = %56, %28, %22
  call void @llvm.lifetime.end.p0(i64 4, ptr %12) #13
  call void @llvm.lifetime.end.p0(i64 4, ptr %11) #13
  call void @llvm.lifetime.end.p0(i64 8, ptr %10) #13
  %58 = load i32, ptr %5, align 4
  ret i32 %58
}