; Function Attrs: nounwind uwtable
define internal i32 @enum_get_value_flag(ptr noundef %0, i32 noundef %1, ptr noundef writeonly captures(address_is_null) %2, ptr noundef writeonly captures(address_is_null) %3) #1 {
  %5 = alloca i32, align 4
  call void @llvm.lifetime.start.p0(i64 4, ptr nonnull %5) #21
  %6 = getelementptr inbounds nuw i8, ptr %0, i64 136
  %7 = load ptr, ptr %6, align 8, !tbaa !15
  %8 = call i32 %7(ptr noundef %0, ptr noundef nonnull %5) #21
  %.not = icmp eq i32 %8, 0
  br i1 %.not, label %9, label %26

9:                                                ; preds = %4
  %10 = load i32, ptr %5, align 4, !tbaa !40
  %.not18 = icmp slt i32 %1, %10
  br i1 %.not18, label %11, label %26

11:                                               ; preds = %9
  %.not19 = icmp eq ptr %2, null
  br i1 %.not19, label %18, label %12

12:                                               ; preds = %11
  %13 = getelementptr inbounds nuw i8, ptr %0, i64 192
  %14 = load ptr, ptr %13, align 8, !tbaa !27
  %15 = sext i32 %1 to i64
  %16 = getelementptr inbounds %struct.pmix_mca_base_var_enum_value_flag_t, ptr %14, i64 %15
  %17 = load i32, ptr %16, align 8, !tbaa !67
  store i32 %17, ptr %2, align 4, !tbaa !40
  br label %18

18:                                               ; preds = %12, %11
  %.not20 = icmp eq ptr %3, null
  br i1 %.not20, label %26, label %19

19:                                               ; preds = %18
  %20 = getelementptr inbounds nuw i8, ptr %0, i64 192
  %21 = load ptr, ptr %20, align 8, !tbaa !27
  %22 = sext i32 %1 to i64
  %23 = getelementptr inbounds %struct.pmix_mca_base_var_enum_value_flag_t, ptr %21, i64 %22, i32 1
  %24 = load ptr, ptr %23, align 8, !tbaa !37
  %25 = call noalias ptr @strdup(ptr noundef %24) #21
  store ptr %25, ptr %3, align 8, !tbaa !41
  br label %26

26:                                               ; preds = %18, %19, %9, %4
  %.0 = phi i32 [ %8, %4 ], [ -65, %9 ], [ 0, %19 ], [ 0, %18 ]
  call void @llvm.lifetime.end.p0(i64 4, ptr nonnull %5) #21
  ret i32 %.0
}